TN:
SF:/home/abhey/Desktop/Masters/Software_Dev/HW_5/sub/cpp-boilerplate-v2/libs/pid/PIDImpl.cpp
FN:86,_ZN3PIDC2Edddddd
FN:103,_ZN3PID9calculateEdd
FN:116,_ZN3PIDD2Ev
FN:135,_ZN7PIDImplC2Edddddd
FN:161,_ZN7PIDImpl9calculateEdd
FNDA:2,_ZN3PIDC2Edddddd
FNDA:2,_ZN3PID9calculateEdd
FNDA:2,_ZN3PIDD2Ev
FNDA:0,_ZN7PIDImpl9calculateEdd
FNDA:0,_ZN7PIDImplC2Edddddd
FNF:5
FNH:3
DA:86,2
DA:90,2
DA:103,2
DA:108,2
DA:116,2
DA:119,2
DA:135,0
DA:136,0
DA:141,0
DA:161,0
DA:192,0
LF:11
LH:6
end_of_record
TN:
SF:/home/abhey/Desktop/Masters/Software_Dev/HW_5/sub/cpp-boilerplate-v2/test/main.cpp
FN:3,main
FNDA:2,main
FNF:1
FNH:1
DA:3,2
DA:4,2
DA:5,2
LF:3
LH:3
end_of_record
TN:
SF:/home/abhey/Desktop/Masters/Software_Dev/HW_5/sub/cpp-boilerplate-v2/test/test.cpp
FN:6,_ZN35PIDControllerTest_TestClamping_TestD0Ev
FN:6,_ZN35PIDControllerTest_TestClamping_TestD2Ev
FN:6,_ZN35PIDControllerTest_TestClamping_TestC2Ev
FN:6,_ZN35PIDControllerTest_TestClamping_Test8TestBodyEv
FN:41,_ZN42PIDControllerTest_TestCalculateOutput_Test8TestBodyEv
FN:41,_ZN42PIDControllerTest_TestCalculateOutput_TestC2Ev
FN:41,_ZN42PIDControllerTest_TestCalculateOutput_TestD0Ev
FN:41,_ZN42PIDControllerTest_TestCalculateOutput_TestD2Ev
FNDA:1,_ZN42PIDControllerTest_TestCalculateOutput_TestD2Ev
FNDA:1,_ZN35PIDControllerTest_TestClamping_Test8TestBodyEv
FNDA:1,_ZN42PIDControllerTest_TestCalculateOutput_TestD0Ev
FNDA:1,_ZN35PIDControllerTest_TestClamping_TestD2Ev
FNDA:1,_ZN35PIDControllerTest_TestClamping_TestC2Ev
FNDA:1,_ZN42PIDControllerTest_TestCalculateOutput_Test8TestBodyEv
FNDA:1,_ZN42PIDControllerTest_TestCalculateOutput_TestC2Ev
FNDA:1,_ZN35PIDControllerTest_TestClamping_TestD0Ev
FNF:8
FNH:8
DA:6,4
DA:8,1
DA:9,1
DA:10,1
DA:11,1
DA:12,1
DA:13,1
DA:15,1
DA:18,1
DA:19,1
DA:22,1
DA:27,1
DA:30,0
DA:31,0
DA:34,0
DA:35,1
DA:41,4
DA:43,1
DA:44,1
DA:45,1
DA:46,1
DA:47,1
DA:48,1
DA:50,1
DA:53,1
DA:54,1
DA:57,1
DA:59,1
DA:62,1
DA:63,1
LF:30
LH:27
end_of_record
